; Function Attrs: mustprogress uwtable
define dso_local void @_ZN4absl24synchronization_internal12StdcppWaiter4PokeEv(ptr noundef nonnull align 8 dereferenceable(96) %0) local_unnamed_addr #2 align 2 personality ptr @__gxx_personality_v0 {
  %2 = tail call noundef i32 @pthread_mutex_lock(ptr noundef nonnull align 8 dereferenceable(40) %0) #7
  %.not.i.i = icmp eq i32 %2, 0
  br i1 %.not.i.i, label %_ZNSt10lock_guardISt5mutexEC2ERS0_.exit, label %3

3:                                                ; preds = %1
  tail call void @_ZSt20__throw_system_errori(i32 noundef %2) #8
  unreachable

_ZNSt10lock_guardISt5mutexEC2ERS0_.exit:          ; preds = %1
  %4 = getelementptr inbounds nuw i8, ptr %0, i64 88
  %5 = load i32, ptr %4, align 8, !tbaa !4
  %.not.i = icmp eq i32 %5, 0
  br i1 %.not.i, label %_ZN4absl24synchronization_internal12StdcppWaiter19InternalCondVarPokeEv.exit, label %6

6:                                                ; preds = %_ZNSt10lock_guardISt5mutexEC2ERS0_.exit
  %7 = getelementptr inbounds nuw i8, ptr %0, i64 40
  tail call void @_ZNSt18condition_variable10notify_oneEv(ptr noundef nonnull align 8 dereferenceable(48) %7) #7
  br label %_ZN4absl24synchronization_internal12StdcppWaiter19InternalCondVarPokeEv.exit

_ZN4absl24synchronization_internal12StdcppWaiter19InternalCondVarPokeEv.exit: ; preds = %_ZNSt10lock_guardISt5mutexEC2ERS0_.exit, %6
  %8 = tail call noundef i32 @pthread_mutex_unlock(ptr noundef nonnull align 8 dereferenceable(40) %0) #7
  ret void
}